; Function Attrs: nounwind uwtable
define hidden ptr @Curl_str2addr(ptr noundef %0, i32 noundef %1) local_unnamed_addr #0 {
  %3 = alloca %struct.in_addr, align 4
  %4 = alloca %struct.in6_addr, align 4
  call void @llvm.lifetime.start.p0(i64 4, ptr nonnull %3) #8
  %5 = call i32 @inet_pton(i32 noundef 2, ptr noundef %0, ptr noundef nonnull %3) #8
  %6 = icmp sgt i32 %5, 0
  br i1 %6, label %7, label %25

7:                                                ; preds = %2
  %8 = call i64 @strlen(ptr noundef nonnull readonly dereferenceable(1) %0) #9
  %9 = load ptr, ptr @Curl_ccalloc, align 8, !tbaa !12
  %10 = add i64 %8, 65
  %11 = call ptr %9(i64 noundef 1, i64 noundef %10) #8
  %.not.i = icmp eq ptr %11, null
  br i1 %.not.i, label %Curl_ip2addr.exit, label %12

12:                                               ; preds = %7
  %13 = add i64 %8, 1
  %14 = getelementptr inbounds nuw i8, ptr %11, i64 48
  %15 = getelementptr inbounds nuw i8, ptr %11, i64 32
  store ptr %14, ptr %15, align 8, !tbaa !31
  %16 = getelementptr inbounds nuw i8, ptr %11, i64 64
  %17 = getelementptr inbounds nuw i8, ptr %11, i64 24
  store ptr %16, ptr %17, align 8, !tbaa !32
  call void @llvm.memcpy.p0.p0.i64(ptr nonnull align 1 %16, ptr nonnull readonly align 1 %0, i64 %13, i1 false)
  %18 = getelementptr inbounds nuw i8, ptr %11, i64 4
  store i32 2, ptr %18, align 4, !tbaa !25
  %19 = getelementptr inbounds nuw i8, ptr %11, i64 8
  store i32 1, ptr %19, align 8, !tbaa !27
  %20 = getelementptr inbounds nuw i8, ptr %11, i64 16
  store i32 16, ptr %20, align 8, !tbaa !30
  %21 = getelementptr inbounds nuw i8, ptr %11, i64 52
  %22 = load i32, ptr %3, align 4
  store i32 %22, ptr %21, align 4
  store i16 2, ptr %14, align 4, !tbaa !34
  %23 = trunc i32 %1 to i16
  %rev.i.i = call noundef i16 @llvm.bswap.i16(i16 %23)
  %24 = getelementptr inbounds nuw i8, ptr %11, i64 50
  store i16 %rev.i.i, ptr %24, align 2, !tbaa !34
  br label %Curl_ip2addr.exit

25:                                               ; preds = %2
  call void @llvm.lifetime.start.p0(i64 16, ptr nonnull %4) #8
  %26 = call i32 @inet_pton(i32 noundef 10, ptr noundef %0, ptr noundef nonnull %4) #8
  %27 = icmp slt i32 %26, 1
  br i1 %27, label %Curl_ip2addr.exit11, label %28

28:                                               ; preds = %25
  %29 = call i64 @strlen(ptr noundef nonnull readonly dereferenceable(1) %0) #9
  %30 = load ptr, ptr @Curl_ccalloc, align 8, !tbaa !12
  %31 = add i64 %29, 77
  %32 = call ptr %30(i64 noundef 1, i64 noundef %31) #8
  %.not.i8 = icmp eq ptr %32, null
  br i1 %.not.i8, label %Curl_ip2addr.exit11, label %33

33:                                               ; preds = %28
  %34 = add i64 %29, 1
  %35 = getelementptr inbounds nuw i8, ptr %32, i64 48
  %36 = getelementptr inbounds nuw i8, ptr %32, i64 32
  store ptr %35, ptr %36, align 8, !tbaa !31
  %37 = getelementptr inbounds nuw i8, ptr %32, i64 76
  %38 = getelementptr inbounds nuw i8, ptr %32, i64 24
  store ptr %37, ptr %38, align 8, !tbaa !32
  call void @llvm.memcpy.p0.p0.i64(ptr nonnull align 1 %37, ptr nonnull readonly align 1 %0, i64 %34, i1 false)
  %39 = getelementptr inbounds nuw i8, ptr %32, i64 4
  store i32 10, ptr %39, align 4, !tbaa !25
  %40 = getelementptr inbounds nuw i8, ptr %32, i64 8
  store i32 1, ptr %40, align 8, !tbaa !27
  %41 = getelementptr inbounds nuw i8, ptr %32, i64 16
  store i32 28, ptr %41, align 8, !tbaa !30
  %42 = getelementptr inbounds nuw i8, ptr %32, i64 56
  call void @llvm.memcpy.p0.p0.i64(ptr noundef nonnull align 4 dereferenceable(16) %42, ptr noundef nonnull readonly align 4 dereferenceable(16) %4, i64 16, i1 false)
  store i16 10, ptr %35, align 4, !tbaa !34
  %43 = trunc i32 %1 to i16
  %rev.i.i9 = call noundef i16 @llvm.bswap.i16(i16 %43)
  %44 = getelementptr inbounds nuw i8, ptr %32, i64 50
  store i16 %rev.i.i9, ptr %44, align 2, !tbaa !34
  br label %Curl_ip2addr.exit11

Curl_ip2addr.exit11:                              ; preds = %33, %28, %25
  %spec.select = phi ptr [ null, %25 ], [ null, %28 ], [ %32, %33 ]
  call void @llvm.lifetime.end.p0(i64 16, ptr nonnull %4) #8
  br label %Curl_ip2addr.exit

Curl_ip2addr.exit:                                ; preds = %12, %7, %Curl_ip2addr.exit11
  %.07 = phi ptr [ %spec.select, %Curl_ip2addr.exit11 ], [ null, %7 ], [ %11, %12 ]
  call void @llvm.lifetime.end.p0(i64 4, ptr nonnull %3) #8
  ret ptr %.07
}